; Function Attrs: mustprogress uwtable
define noundef i32 @_ZN3zmq14ipc_listener_t5closeEv(ptr noundef nonnull align 8 dereferenceable(1592) %this) unnamed_addr #0 align 2 personality ptr @__gxx_personality_v0 {
entry:
  %ref.tmp = alloca %"struct.zmq::endpoint_uri_pair_t", align 8
  %ref.tmp38 = alloca %"struct.zmq::endpoint_uri_pair_t", align 8
  %_s = getelementptr inbounds i8, ptr %this, i64 1464
  %0 = load i32, ptr %_s, align 8
  %cmp.not = icmp eq i32 %0, -1
  %ref.tmp38.sink12.sroa.gep = getelementptr inbounds i8, ptr %ref.tmp38, i64 32
  %ref.tmp38.sink12.sroa.gep13 = getelementptr inbounds i8, ptr %ref.tmp, i64 32
  %ref.tmp38.sink10.sroa.gep = getelementptr inbounds i8, ptr %ref.tmp, i64 32
  %ref.tmp38.sink10.sroa.gep14 = getelementptr inbounds i8, ptr %ref.tmp38, i64 32
  br i1 %cmp.not, label %if.then, label %do.end

if.then:                                          ; preds = %entry
  %1 = load ptr, ptr @stderr, align 8
  %call = tail call i32 (ptr, ptr, ...) @fprintf(ptr noundef %1, ptr noundef nonnull @.str, ptr noundef nonnull @.str.1, ptr noundef nonnull @.str.2, i32 noundef 163) #12
  %2 = load ptr, ptr @stderr, align 8
  %call2 = tail call i32 @fflush(ptr noundef %2)
  tail call void @_ZN3zmq9zmq_abortEPKc(ptr noundef nonnull @.str.1)
  %.pre = load i32, ptr %_s, align 8
  br label %do.end

do.end:                                           ; preds = %entry, %if.then
  %3 = phi i32 [ %0, %entry ], [ %.pre, %if.then ]
  %call5 = tail call i32 @close(i32 noundef %3)
  %cmp7.not = icmp eq i32 %call5, 0
  br i1 %cmp7.not, label %do.end15, label %if.then9

if.then9:                                         ; preds = %do.end
  %call10 = tail call ptr @__errno_location() #13
  %4 = load i32, ptr %call10, align 4
  %call11 = tail call ptr @strerror(i32 noundef %4) #11
  %5 = load ptr, ptr @stderr, align 8
  %call12 = tail call i32 (ptr, ptr, ...) @fprintf(ptr noundef %5, ptr noundef nonnull @.str.3, ptr noundef %call11, ptr noundef nonnull @.str.2, i32 noundef 170) #12
  %6 = load ptr, ptr @stderr, align 8
  %call13 = tail call i32 @fflush(ptr noundef %6)
  tail call void @_ZN3zmq9zmq_abortEPKc(ptr noundef %call11)
  br label %do.end15

do.end15:                                         ; preds = %do.end, %if.then9
  store i32 -1, ptr %_s, align 8
  %_has_file = getelementptr inbounds i8, ptr %this, i64 1520
  %7 = load i8, ptr %_has_file, align 8
  %8 = and i8 %7, 1
  %tobool.not = icmp ne i8 %8, 0
  %use_fd = getelementptr inbounds i8, ptr %this, i64 980
  %9 = load i32, ptr %use_fd, align 4
  %cmp17 = icmp eq i32 %9, -1
  %or.cond = select i1 %tobool.not, i1 %cmp17, i1 false
  br i1 %or.cond, label %if.then18, label %if.end36

if.then18:                                        ; preds = %do.end15
  %_tmp_socket_dirname = getelementptr inbounds i8, ptr %this, i64 1528
  %call19 = tail call noundef zeroext i1 @_ZNKSt7__cxx1112basic_stringIcSt11char_traitsIcESaIcEE5emptyEv(ptr noundef nonnull align 8 dereferenceable(32) %_tmp_socket_dirname) #11
  br i1 %call19, label %if.end30, label %if.then20

if.then20:                                        ; preds = %if.then18
  %_filename = getelementptr inbounds i8, ptr %this, i64 1560
  %call21 = tail call noundef ptr @_ZNKSt7__cxx1112basic_stringIcSt11char_traitsIcESaIcEE5c_strEv(ptr noundef nonnull align 8 dereferenceable(32) %_filename) #11
  %call22 = tail call i32 @unlink(ptr noundef %call21) #11
  %cmp23 = icmp eq i32 %call22, 0
  br i1 %cmp23, label %if.then24, label %if.then32

if.then24:                                        ; preds = %if.then20
  %call26 = tail call noundef ptr @_ZNKSt7__cxx1112basic_stringIcSt11char_traitsIcESaIcEE5c_strEv(ptr noundef nonnull align 8 dereferenceable(32) %_tmp_socket_dirname) #11
  %call27 = tail call i32 @rmdir(ptr noundef %call26) #11
  tail call void @_ZNSt7__cxx1112basic_stringIcSt11char_traitsIcESaIcEE5clearEv(ptr noundef nonnull align 8 dereferenceable(32) %_tmp_socket_dirname) #11
  br label %if.end30

if.end30:                                         ; preds = %if.then24, %if.then18
  %rc.0 = phi i32 [ %call5, %if.then18 ], [ %call27, %if.then24 ]
  %cmp31.not = icmp eq i32 %rc.0, 0
  br i1 %cmp31.not, label %if.end36, label %if.then32

if.then32:                                        ; preds = %if.then20, %if.end30
  %_socket = getelementptr inbounds i8, ptr %this, i64 1480
  %10 = load ptr, ptr %_socket, align 8
  %_endpoint = getelementptr inbounds i8, ptr %this, i64 1488
  call void @_ZN3zmq35make_unconnected_bind_endpoint_pairERKNSt7__cxx1112basic_stringIcSt11char_traitsIcESaIcEEE(ptr nonnull sret(%"struct.zmq::endpoint_uri_pair_t") align 8 %ref.tmp, ptr noundef nonnull align 8 dereferenceable(32) %_endpoint)
  %call33 = invoke i32 @zmq_errno()
          to label %invoke.cont unwind label %lpad

invoke.cont:                                      ; preds = %if.then32
  invoke void @_ZN3zmq13socket_base_t18event_close_failedERKNS_19endpoint_uri_pair_tEi(ptr noundef nonnull align 8 dereferenceable(1825) %10, ptr noundef nonnull align 8 dereferenceable(68) %ref.tmp, i32 noundef %call33)
          to label %return unwind label %lpad

lpad:                                             ; preds = %invoke.cont, %if.then32
  %11 = landingpad { ptr, i32 }
          cleanup
  br label %eh.resume

if.end36:                                         ; preds = %if.end30, %do.end15
  %_socket37 = getelementptr inbounds i8, ptr %this, i64 1480
  %12 = load ptr, ptr %_socket37, align 8
  %_endpoint39 = getelementptr inbounds i8, ptr %this, i64 1488
  call void @_ZN3zmq35make_unconnected_bind_endpoint_pairERKNSt7__cxx1112basic_stringIcSt11char_traitsIcESaIcEEE(ptr nonnull sret(%"struct.zmq::endpoint_uri_pair_t") align 8 %ref.tmp38, ptr noundef nonnull align 8 dereferenceable(32) %_endpoint39)
  invoke void @_ZN3zmq13socket_base_t12event_closedERKNS_19endpoint_uri_pair_tEi(ptr noundef nonnull align 8 dereferenceable(1825) %12, ptr noundef nonnull align 8 dereferenceable(68) %ref.tmp38, i32 noundef %3)
          to label %return unwind label %lpad40

lpad40:                                           ; preds = %if.end36
  %13 = landingpad { ptr, i32 }
          cleanup
  br label %eh.resume

return:                                           ; preds = %if.end36, %invoke.cont
  %ref.tmp38.sink10.sroa.phi = phi ptr [ %ref.tmp38.sink10.sroa.gep, %invoke.cont ], [ %ref.tmp38.sink10.sroa.gep14, %if.end36 ]
  %ref.tmp38.sink10 = phi ptr [ %ref.tmp, %invoke.cont ], [ %ref.tmp38, %if.end36 ]
  %retval.0 = phi i32 [ -1, %invoke.cont ], [ 0, %if.end36 ]
  call void @_ZNSt7__cxx1112basic_stringIcSt11char_traitsIcESaIcEED1Ev(ptr noundef nonnull align 8 dereferenceable(32) %ref.tmp38.sink10.sroa.phi) #11
  call void @_ZNSt7__cxx1112basic_stringIcSt11char_traitsIcESaIcEED1Ev(ptr noundef nonnull align 8 dereferenceable(32) %ref.tmp38.sink10) #11
  ret i32 %retval.0

eh.resume:                                        ; preds = %lpad40, %lpad
  %ref.tmp38.sink12.sroa.phi = phi ptr [ %ref.tmp38.sink12.sroa.gep, %lpad40 ], [ %ref.tmp38.sink12.sroa.gep13, %lpad ]
  %ref.tmp38.sink12 = phi ptr [ %ref.tmp38, %lpad40 ], [ %ref.tmp, %lpad ]
  %.pn = phi { ptr, i32 } [ %13, %lpad40 ], [ %11, %lpad ]
  call void @_ZNSt7__cxx1112basic_stringIcSt11char_traitsIcESaIcEED1Ev(ptr noundef nonnull align 8 dereferenceable(32) %ref.tmp38.sink12.sroa.phi) #11
  call void @_ZNSt7__cxx1112basic_stringIcSt11char_traitsIcESaIcEED1Ev(ptr noundef nonnull align 8 dereferenceable(32) %ref.tmp38.sink12) #11
  resume { ptr, i32 } %.pn
}